target datalayout = "e-m:e-p270:32:32-p271:32:32-p272:64:64-i64:64-i128:128-f80:128-n8:16:32:64-S128"
target triple = "x86_64-pc-linux-gnu"

%struct.PageHeaderData = type { %struct.PageXLogRecPtr, i16, i16, i16, i16, i16, i16, i32, [0 x %struct.ItemIdData] }
%struct.PageXLogRecPtr = type { i32, i32 }
%struct.ItemIdData = type { i32 }
%struct.BrinSpecialSpace = type { [4 x i16] }

@CritSectionCount = external global i32, align 4
@LocalBufferBlockPointers = external global ptr, align 8
@BufferBlocks = external global ptr, align 8

; Function Attrs: inlinehint nounwind uwtable
define internal void @PageValidateSpecialPointer(ptr noundef %0) #4 {
  %2 = alloca ptr, align 8
  store ptr %0, ptr %2, align 8
  ret void
}

; Function Attrs: inlinehint nounwind uwtable
define internal ptr @BufferGetBlock(i32 noundef %0) #4 {
  %2 = alloca ptr, align 8
  %3 = alloca i32, align 4
  store i32 %0, ptr %3, align 4
  %4 = load i32, ptr %3, align 4
  %5 = icmp slt i32 %4, 0
  br i1 %5, label %6, label %14

6:                                                ; preds = %1
  %7 = load ptr, ptr @LocalBufferBlockPointers, align 8
  %8 = load i32, ptr %3, align 4
  %9 = sub i32 0, %8
  %10 = sub i32 %9, 1
  %11 = sext i32 %10 to i64
  %12 = getelementptr inbounds ptr, ptr %7, i64 %11
  %13 = load ptr, ptr %12, align 8
  store ptr %13, ptr %2, align 8
  br label %21

14:                                               ; preds = %1
  %15 = load ptr, ptr @BufferBlocks, align 8
  %16 = load i32, ptr %3, align 4
  %17 = sub i32 %16, 1
  %18 = sext i32 %17 to i64
  %19 = mul i64 %18, 8192
  %20 = getelementptr inbounds nuw i8, ptr %15, i64 %19
  store ptr %20, ptr %2, align 8
  br label %21

21:                                               ; preds = %14, %6
  %22 = load ptr, ptr %2, align 8
  ret ptr %22
}

; Function Attrs: nounwind uwtable
define internal i64 @br_page_get_freespace(ptr noundef %0) #0 {
  %2 = alloca i64, align 8
  %3 = alloca ptr, align 8
  store ptr %0, ptr %3, align 8
  %4 = load ptr, ptr %3, align 8
  call void @PageValidateSpecialPointer(ptr noundef %4)
  %5 = load ptr, ptr %3, align 8
  %6 = load ptr, ptr %3, align 8
  %7 = getelementptr inbounds nuw %struct.PageHeaderData, ptr %6, i32 0, i32 5
  %8 = load i16, ptr %7, align 4
  %9 = zext i16 %8 to i32
  %10 = sext i32 %9 to i64
  %11 = getelementptr inbounds i8, ptr %5, i64 %10
  %12 = getelementptr inbounds nuw %struct.BrinSpecialSpace, ptr %11, i32 0, i32 0
  %13 = getelementptr inbounds nuw [4 x i16], ptr %12, i64 0, i64 3
  %14 = load i16, ptr %13, align 2
  %15 = zext i16 %14 to i32
  %16 = icmp eq i32 %15, 61587
  br i1 %16, label %17, label %32

17:                                               ; preds = %1
  %18 = load ptr, ptr %3, align 8
  call void @PageValidateSpecialPointer(ptr noundef %18)
  %19 = load ptr, ptr %3, align 8
  %20 = load ptr, ptr %3, align 8
  %21 = getelementptr inbounds nuw %struct.PageHeaderData, ptr %20, i32 0, i32 5
  %22 = load i16, ptr %21, align 4
  %23 = zext i16 %22 to i32
  %24 = sext i32 %23 to i64
  %25 = getelementptr inbounds i8, ptr %19, i64 %24
  %26 = getelementptr inbounds nuw %struct.BrinSpecialSpace, ptr %25, i32 0, i32 0
  %27 = getelementptr inbounds nuw [4 x i16], ptr %26, i64 0, i64 2
  %28 = load i16, ptr %27, align 2
  %29 = zext i16 %28 to i32
  %30 = and i32 %29, 1
  %31 = icmp ne i32 %30, 0
  br i1 %31, label %32, label %33

32:                                               ; preds = %17, %1
  store i64 0, ptr %2, align 8
  br label %36

33:                                               ; preds = %17
  %34 = load ptr, ptr %3, align 8
  %35 = call i64 @PageGetFreeSpace(ptr noundef %34)
  store i64 %35, ptr %2, align 8
  br label %36

36:                                               ; preds = %33, %32
  %37 = load i64, ptr %2, align 8
  ret i64 %37
}

; Function Attrs: nounwind uwtable
define dso_local void @brin_page_init(ptr noundef %0, i16 noundef zeroext %1) #0 {
  %3 = alloca ptr, align 8
  %4 = alloca i16, align 2
  store ptr %0, ptr %3, align 8
  store i16 %1, ptr %4, align 2
  %5 = load ptr, ptr %3, align 8
  call void @PageInit(ptr noundef %5, i64 noundef 8192, i64 noundef 8)
  %6 = load i16, ptr %4, align 2
  %7 = load ptr, ptr %3, align 8
  call void @PageValidateSpecialPointer(ptr noundef %7)
  %8 = load ptr, ptr %3, align 8
  %9 = load ptr, ptr %3, align 8
  %10 = getelementptr inbounds nuw %struct.PageHeaderData, ptr %9, i32 0, i32 5
  %11 = load i16, ptr %10, align 4
  %12 = zext i16 %11 to i32
  %13 = sext i32 %12 to i64
  %14 = getelementptr inbounds i8, ptr %8, i64 %13
  %15 = getelementptr inbounds nuw %struct.BrinSpecialSpace, ptr %14, i32 0, i32 0
  %16 = getelementptr inbounds nuw [4 x i16], ptr %15, i64 0, i64 3
  store i16 %6, ptr %16, align 2
  ret void
}

; Function Attrs: inlinehint nounwind uwtable
define internal ptr @BufferGetPage(i32 noundef %0) #4 {
  %2 = alloca i32, align 4
  store i32 %0, ptr %2, align 4
  %3 = load i32, ptr %2, align 4
  %4 = call ptr @BufferGetBlock(i32 noundef %3)
  ret ptr %4
}

; Function Attrs: nounwind uwtable
define internal void @brin_initialize_empty_new_buffer(ptr noundef %0, i32 noundef %1) #0 {
  %3 = alloca ptr, align 8
  %4 = alloca i32, align 4
  %5 = alloca ptr, align 8
  store ptr %0, ptr %3, align 8
  store i32 %1, ptr %4, align 4
  call void @llvm.lifetime.start.p0(i64 8, ptr %5) #7
  %6 = load volatile i32, ptr @CritSectionCount, align 4
  %7 = add i32 %6, 1
  store volatile i32 %7, ptr @CritSectionCount, align 4
  %8 = load i32, ptr %4, align 4
  %9 = call ptr @BufferGetPage(i32 noundef %8)
  store ptr %9, ptr %5, align 8
  %10 = load ptr, ptr %5, align 8
  call void @brin_page_init(ptr noundef %10, i16 noundef zeroext -3949)
  %11 = load i32, ptr %4, align 4
  call void @MarkBufferDirty(i32 noundef %11)
  %12 = load i32, ptr %4, align 4
  %13 = call i64 @log_newpage_buffer(i32 noundef %12, i1 noundef zeroext true)
  br label %14

14:                                               ; preds = %2
  %15 = load volatile i32, ptr @CritSectionCount, align 4
  %16 = add i32 %15, -1
  store volatile i32 %16, ptr @CritSectionCount, align 4
  br label %17

17:                                               ; preds = %14
  br label %18

18:                                               ; preds = %17
  %19 = load ptr, ptr %3, align 8
  %20 = load i32, ptr %4, align 4
  %21 = call i32 @BufferGetBlockNumber(i32 noundef %20)
  %22 = load ptr, ptr %5, align 8
  %23 = call i64 @br_page_get_freespace(ptr noundef %22)
  call void @RecordPageWithFreeSpace(ptr noundef %19, i32 noundef %21, i64 noundef %23)
  call void @llvm.lifetime.end.p0(i64 8, ptr %5) #7
  ret void
}