; Function Attrs: nounwind uwtable
define internal fastcc void @brin_initialize_empty_new_buffer(ptr noundef %0, i32 noundef %1) unnamed_addr #0 {
  %3 = load volatile i32, ptr @CritSectionCount, align 4
  %4 = add i32 %3, 1
  store volatile i32 %4, ptr @CritSectionCount, align 4
  %5 = icmp slt i32 %1, 0
  br i1 %5, label %6, label %12

6:                                                ; preds = %2
  %7 = load ptr, ptr @LocalBufferBlockPointers, align 8
  %8 = xor i32 %1, -1
  %9 = zext nneg i32 %8 to i64
  %10 = getelementptr inbounds nuw ptr, ptr %7, i64 %9
  %11 = load ptr, ptr %10, align 8
  br label %BufferGetPage.exit

12:                                               ; preds = %2
  %13 = load ptr, ptr @BufferBlocks, align 8
  %14 = add nsw i32 %1, -1
  %15 = sext i32 %14 to i64
  %16 = shl nsw i64 %15, 13
  %17 = getelementptr inbounds nuw i8, ptr %13, i64 %16
  br label %BufferGetPage.exit

BufferGetPage.exit:                               ; preds = %6, %12
  %.0.i.i = phi ptr [ %11, %6 ], [ %17, %12 ]
  tail call void @PageInit(ptr noundef %.0.i.i, i64 noundef 8192, i64 noundef 8) #5
  %18 = getelementptr inbounds nuw i8, ptr %.0.i.i, i64 16
  %19 = load i16, ptr %18, align 4
  %20 = zext i16 %19 to i64
  %21 = getelementptr inbounds nuw i8, ptr %.0.i.i, i64 %20
  %22 = getelementptr inbounds nuw i8, ptr %21, i64 6
  store i16 -3949, ptr %22, align 2
  tail call void @MarkBufferDirty(i32 noundef %1) #5
  %23 = tail call i64 @log_newpage_buffer(i32 noundef %1, i1 noundef zeroext true) #5
  %24 = load volatile i32, ptr @CritSectionCount, align 4
  %25 = add i32 %24, -1
  store volatile i32 %25, ptr @CritSectionCount, align 4
  %26 = tail call i32 @BufferGetBlockNumber(i32 noundef %1) #5
  %27 = load i16, ptr %18, align 4
  %28 = zext i16 %27 to i64
  %29 = getelementptr inbounds nuw i8, ptr %.0.i.i, i64 %28
  %30 = getelementptr inbounds nuw i8, ptr %29, i64 6
  %31 = load i16, ptr %30, align 2
  %32 = icmp eq i16 %31, -3949
  br i1 %32, label %33, label %br_page_get_freespace.exit

33:                                               ; preds = %BufferGetPage.exit
  %34 = getelementptr inbounds nuw i8, ptr %29, i64 4
  %35 = load i16, ptr %34, align 2
  %36 = and i16 %35, 1
  %.not.i = icmp eq i16 %36, 0
  br i1 %.not.i, label %37, label %br_page_get_freespace.exit

37:                                               ; preds = %33
  %38 = tail call i64 @PageGetFreeSpace(ptr noundef nonnull %.0.i.i) #5
  br label %br_page_get_freespace.exit

br_page_get_freespace.exit:                       ; preds = %BufferGetPage.exit, %33, %37
  %.0.i = phi i64 [ %38, %37 ], [ 0, %33 ], [ 0, %BufferGetPage.exit ]
  tail call void @RecordPageWithFreeSpace(ptr noundef %0, i32 noundef %26, i64 noundef %.0.i) #5
  ret void
}